; Function Attrs: mustprogress nounwind uwtable
define internal void @_ZN12_GLOBAL__N_118NoStoreFuncVisitorD0Ev(ptr noundef nonnull align 8 dereferenceable(632) initializes((0, 8)) %0) unnamed_addr #0 align 2 {
  store ptr getelementptr inbounds nuw inrange(-16, 88) (i8, ptr @_ZTVN5clang4ento24NoStateChangeFuncVisitorE, i64 16), ptr %0, align 8
  %2 = getelementptr inbounds nuw i8, ptr %0, i64 304
  %3 = getelementptr inbounds nuw i8, ptr %0, i64 312
  %4 = load ptr, ptr %3, align 8
  %5 = load ptr, ptr %2, align 8
  %6 = icmp eq ptr %4, %5
  br i1 %6, label %_ZN4llvm11SmallPtrSetIPKN5clang17StackFrameContextELj32EED2Ev.exit.i.i, label %7

7:                                                ; preds = %1
  tail call void @free(ptr noundef %4) #22
  br label %_ZN4llvm11SmallPtrSetIPKN5clang17StackFrameContextELj32EED2Ev.exit.i.i

_ZN4llvm11SmallPtrSetIPKN5clang17StackFrameContextELj32EED2Ev.exit.i.i: ; preds = %7, %1
  %8 = getelementptr inbounds nuw i8, ptr %0, i64 16
  %9 = getelementptr inbounds nuw i8, ptr %0, i64 24
  %10 = load ptr, ptr %9, align 8
  %11 = load ptr, ptr %8, align 8
  %12 = icmp eq ptr %10, %11
  br i1 %12, label %_ZN12_GLOBAL__N_118NoStoreFuncVisitorD2Ev.exit, label %13

13:                                               ; preds = %_ZN4llvm11SmallPtrSetIPKN5clang17StackFrameContextELj32EED2Ev.exit.i.i
  tail call void @free(ptr noundef %10) #22
  br label %_ZN12_GLOBAL__N_118NoStoreFuncVisitorD2Ev.exit

_ZN12_GLOBAL__N_118NoStoreFuncVisitorD2Ev.exit:   ; preds = %_ZN4llvm11SmallPtrSetIPKN5clang17StackFrameContextELj32EED2Ev.exit.i.i, %13
  tail call void @_ZN5clang4ento18BugReporterVisitorD2Ev(ptr noundef nonnull align 8 dereferenceable(632) %0) #22
  tail call void @_ZdlPvm(ptr noundef nonnull %0, i64 noundef 632) #25
  ret void
}